target datalayout = "e-m:e-p270:32:32-p271:32:32-p272:64:64-i64:64-i128:128-f80:128-n8:16:32:64-S128"
target triple = "x86_64-pc-linux-gnu"

@.str.2 = private unnamed_addr constant [2 x i8] c"\22\00", align 1
@.str.12 = private unnamed_addr constant [5 x i8] c"\22\\\22\22\00", align 1
@.str.13 = private unnamed_addr constant [5 x i8] c"\22\\t\22\00", align 1
@.str.14 = private unnamed_addr constant [5 x i8] c"\22\\n\22\00", align 1
@.str.15 = private unnamed_addr constant [5 x i8] c"\22\\b\22\00", align 1
@.str.16 = private unnamed_addr constant [5 x i8] c"\22\\r\22\00", align 1
@.str.17 = private unnamed_addr constant [5 x i8] c"\22\\f\22\00", align 1
@.str.18 = private unnamed_addr constant [5 x i8] c"\22\\\\\22\00", align 1

; Function Attrs: inlinehint mustprogress uwtable
define linkonce_odr noundef nonnull align 8 dereferenceable(57) ptr @_ZN4YAMLlsILm2EEERNS_15ostream_wrapperES2_RAT__Kc(ptr noundef nonnull align 8 dereferenceable(57) %0, ptr noundef nonnull align 1 dereferenceable(2) %1) #1 comdat {
  %3 = alloca ptr, align 8
  %4 = alloca ptr, align 8
  store ptr %0, ptr %3, align 8, !tbaa !28
  store ptr %1, ptr %4, align 8, !tbaa !3
  %5 = load ptr, ptr %3, align 8, !tbaa !28
  %6 = load ptr, ptr %4, align 8, !tbaa !3
  %7 = getelementptr inbounds [2 x i8], ptr %6, i64 0, i64 0
  call void @_ZN4YAML15ostream_wrapper5writeEPKcm(ptr noundef nonnull align 8 dereferenceable(57) %5, ptr noundef %7, i64 noundef 1)
  %8 = load ptr, ptr %3, align 8, !tbaa !28
  ret ptr %8
}

; Function Attrs: inlinehint mustprogress uwtable
define linkonce_odr noundef nonnull align 8 dereferenceable(57) ptr @_ZN4YAMLlsILm5EEERNS_15ostream_wrapperES2_RAT__Kc(ptr noundef nonnull align 8 dereferenceable(57) %0, ptr noundef nonnull align 1 dereferenceable(5) %1) #1 comdat {
  %3 = alloca ptr, align 8
  %4 = alloca ptr, align 8
  store ptr %0, ptr %3, align 8, !tbaa !28
  store ptr %1, ptr %4, align 8, !tbaa !3
  %5 = load ptr, ptr %3, align 8, !tbaa !28
  %6 = load ptr, ptr %4, align 8, !tbaa !3
  %7 = getelementptr inbounds [5 x i8], ptr %6, i64 0, i64 0
  call void @_ZN4YAML15ostream_wrapper5writeEPKcm(ptr noundef nonnull align 8 dereferenceable(57) %5, ptr noundef %7, i64 noundef 4)
  %8 = load ptr, ptr %3, align 8, !tbaa !28
  ret ptr %8
}

; Function Attrs: inlinehint mustprogress uwtable
define linkonce_odr noundef nonnull align 8 dereferenceable(57) ptr @_ZN4YAMLlsERNS_15ostream_wrapperEc(ptr noundef nonnull align 8 dereferenceable(57) %0, i8 noundef signext %1) #1 comdat {
  %3 = alloca ptr, align 8
  %4 = alloca i8, align 1
  store ptr %0, ptr %3, align 8, !tbaa !28
  store i8 %1, ptr %4, align 1, !tbaa !20
  %5 = load ptr, ptr %3, align 8, !tbaa !28
  call void @_ZN4YAML15ostream_wrapper5writeEPKcm(ptr noundef nonnull align 8 dereferenceable(57) %5, ptr noundef %4, i64 noundef 1)
  %6 = load ptr, ptr %3, align 8, !tbaa !28
  ret ptr %6
}

; Function Attrs: mustprogress uwtable
define noundef zeroext i1 @_ZN4YAML5Utils9WriteCharERNS_15ostream_wrapperEcNS_14StringEscaping5valueE(ptr noundef nonnull align 8 dereferenceable(57) %0, i8 noundef signext %1, i32 noundef %2) #0 {
  %4 = alloca ptr, align 8
  %5 = alloca i8, align 1
  %6 = alloca i32, align 4
  store ptr %0, ptr %4, align 8, !tbaa !28
  store i8 %1, ptr %5, align 1, !tbaa !20
  store i32 %2, ptr %6, align 4, !tbaa !39
  %7 = load i8, ptr %5, align 1, !tbaa !20
  %8 = sext i8 %7 to i32
  %9 = icmp sle i32 97, %8
  br i1 %9, label %10, label %14

10:                                               ; preds = %3
  %11 = load i8, ptr %5, align 1, !tbaa !20
  %12 = sext i8 %11 to i32
  %13 = icmp sle i32 %12, 122
  br i1 %13, label %22, label %14

14:                                               ; preds = %10, %3
  %15 = load i8, ptr %5, align 1, !tbaa !20
  %16 = sext i8 %15 to i32
  %17 = icmp sle i32 65, %16
  br i1 %17, label %18, label %26

18:                                               ; preds = %14
  %19 = load i8, ptr %5, align 1, !tbaa !20
  %20 = sext i8 %19 to i32
  %21 = icmp sle i32 %20, 90
  br i1 %21, label %22, label %26

22:                                               ; preds = %18, %10
  %23 = load ptr, ptr %4, align 8, !tbaa !28
  %24 = load i8, ptr %5, align 1, !tbaa !20
  %25 = call noundef nonnull align 8 dereferenceable(57) ptr @_ZN4YAMLlsERNS_15ostream_wrapperEc(ptr noundef nonnull align 8 dereferenceable(57) %23, i8 noundef signext %24)
  br label %106

26:                                               ; preds = %18, %14
  %27 = load i8, ptr %5, align 1, !tbaa !20
  %28 = sext i8 %27 to i32
  %29 = icmp eq i32 %28, 34
  br i1 %29, label %30, label %33

30:                                               ; preds = %26
  %31 = load ptr, ptr %4, align 8, !tbaa !28
  %32 = call noundef nonnull align 8 dereferenceable(57) ptr @_ZN4YAMLlsILm5EEERNS_15ostream_wrapperES2_RAT__Kc(ptr noundef nonnull align 8 dereferenceable(57) %31, ptr noundef nonnull align 1 dereferenceable(5) @.str.12)
  br label %105

33:                                               ; preds = %26
  %34 = load i8, ptr %5, align 1, !tbaa !20
  %35 = sext i8 %34 to i32
  %36 = icmp eq i32 %35, 9
  br i1 %36, label %37, label %40

37:                                               ; preds = %33
  %38 = load ptr, ptr %4, align 8, !tbaa !28
  %39 = call noundef nonnull align 8 dereferenceable(57) ptr @_ZN4YAMLlsILm5EEERNS_15ostream_wrapperES2_RAT__Kc(ptr noundef nonnull align 8 dereferenceable(57) %38, ptr noundef nonnull align 1 dereferenceable(5) @.str.13)
  br label %104

40:                                               ; preds = %33
  %41 = load i8, ptr %5, align 1, !tbaa !20
  %42 = sext i8 %41 to i32
  %43 = icmp eq i32 %42, 10
  br i1 %43, label %44, label %47

44:                                               ; preds = %40
  %45 = load ptr, ptr %4, align 8, !tbaa !28
  %46 = call noundef nonnull align 8 dereferenceable(57) ptr @_ZN4YAMLlsILm5EEERNS_15ostream_wrapperES2_RAT__Kc(ptr noundef nonnull align 8 dereferenceable(57) %45, ptr noundef nonnull align 1 dereferenceable(5) @.str.14)
  br label %103

47:                                               ; preds = %40
  %48 = load i8, ptr %5, align 1, !tbaa !20
  %49 = sext i8 %48 to i32
  %50 = icmp eq i32 %49, 8
  br i1 %50, label %51, label %54

51:                                               ; preds = %47
  %52 = load ptr, ptr %4, align 8, !tbaa !28
  %53 = call noundef nonnull align 8 dereferenceable(57) ptr @_ZN4YAMLlsILm5EEERNS_15ostream_wrapperES2_RAT__Kc(ptr noundef nonnull align 8 dereferenceable(57) %52, ptr noundef nonnull align 1 dereferenceable(5) @.str.15)
  br label %102

54:                                               ; preds = %47
  %55 = load i8, ptr %5, align 1, !tbaa !20
  %56 = sext i8 %55 to i32
  %57 = icmp eq i32 %56, 13
  br i1 %57, label %58, label %61

58:                                               ; preds = %54
  %59 = load ptr, ptr %4, align 8, !tbaa !28
  %60 = call noundef nonnull align 8 dereferenceable(57) ptr @_ZN4YAMLlsILm5EEERNS_15ostream_wrapperES2_RAT__Kc(ptr noundef nonnull align 8 dereferenceable(57) %59, ptr noundef nonnull align 1 dereferenceable(5) @.str.16)
  br label %101

61:                                               ; preds = %54
  %62 = load i8, ptr %5, align 1, !tbaa !20
  %63 = sext i8 %62 to i32
  %64 = icmp eq i32 %63, 12
  br i1 %64, label %65, label %68

65:                                               ; preds = %61
  %66 = load ptr, ptr %4, align 8, !tbaa !28
  %67 = call noundef nonnull align 8 dereferenceable(57) ptr @_ZN4YAMLlsILm5EEERNS_15ostream_wrapperES2_RAT__Kc(ptr noundef nonnull align 8 dereferenceable(57) %66, ptr noundef nonnull align 1 dereferenceable(5) @.str.17)
  br label %100

68:                                               ; preds = %61
  %69 = load i8, ptr %5, align 1, !tbaa !20
  %70 = sext i8 %69 to i32
  %71 = icmp eq i32 %70, 92
  br i1 %71, label %72, label %75

72:                                               ; preds = %68
  %73 = load ptr, ptr %4, align 8, !tbaa !28
  %74 = call noundef nonnull align 8 dereferenceable(57) ptr @_ZN4YAMLlsILm5EEERNS_15ostream_wrapperES2_RAT__Kc(ptr noundef nonnull align 8 dereferenceable(57) %73, ptr noundef nonnull align 1 dereferenceable(5) @.str.18)
  br label %99

75:                                               ; preds = %68
  %76 = load i8, ptr %5, align 1, !tbaa !20
  %77 = sext i8 %76 to i32
  %78 = icmp sle i32 32, %77
  br i1 %78, label %79, label %89

79:                                               ; preds = %75
  %80 = load i8, ptr %5, align 1, !tbaa !20
  %81 = sext i8 %80 to i32
  %82 = icmp sle i32 %81, 126
  br i1 %82, label %83, label %89

83:                                               ; preds = %79
  %84 = load ptr, ptr %4, align 8, !tbaa !28
  %85 = call noundef nonnull align 8 dereferenceable(57) ptr @_ZN4YAMLlsILm2EEERNS_15ostream_wrapperES2_RAT__Kc(ptr noundef nonnull align 8 dereferenceable(57) %84, ptr noundef nonnull align 1 dereferenceable(2) @.str.2)
  %86 = load i8, ptr %5, align 1, !tbaa !20
  %87 = call noundef nonnull align 8 dereferenceable(57) ptr @_ZN4YAMLlsERNS_15ostream_wrapperEc(ptr noundef nonnull align 8 dereferenceable(57) %85, i8 noundef signext %86)
  %88 = call noundef nonnull align 8 dereferenceable(57) ptr @_ZN4YAMLlsILm2EEERNS_15ostream_wrapperES2_RAT__Kc(ptr noundef nonnull align 8 dereferenceable(57) %87, ptr noundef nonnull align 1 dereferenceable(2) @.str.2)
  br label %98

89:                                               ; preds = %79, %75
  %90 = load ptr, ptr %4, align 8, !tbaa !28
  %91 = call noundef nonnull align 8 dereferenceable(57) ptr @_ZN4YAMLlsILm2EEERNS_15ostream_wrapperES2_RAT__Kc(ptr noundef nonnull align 8 dereferenceable(57) %90, ptr noundef nonnull align 1 dereferenceable(2) @.str.2)
  %92 = load ptr, ptr %4, align 8, !tbaa !28
  %93 = load i8, ptr %5, align 1, !tbaa !20
  %94 = sext i8 %93 to i32
  %95 = load i32, ptr %6, align 4, !tbaa !39
  call void @_ZN4YAML5Utils12_GLOBAL__N_130WriteDoubleQuoteEscapeSequenceERNS_15ostream_wrapperEiNS_14StringEscaping5valueE(ptr noundef nonnull align 8 dereferenceable(57) %92, i32 noundef %94, i32 noundef %95)
  %96 = load ptr, ptr %4, align 8, !tbaa !28
  %97 = call noundef nonnull align 8 dereferenceable(57) ptr @_ZN4YAMLlsILm2EEERNS_15ostream_wrapperES2_RAT__Kc(ptr noundef nonnull align 8 dereferenceable(57) %96, ptr noundef nonnull align 1 dereferenceable(2) @.str.2)
  br label %98

98:                                               ; preds = %89, %83
  br label %99

99:                                               ; preds = %98, %72
  br label %100

100:                                              ; preds = %99, %65
  br label %101

101:                                              ; preds = %100, %58
  br label %102

102:                                              ; preds = %101, %51
  br label %103

103:                                              ; preds = %102, %44
  br label %104

104:                                              ; preds = %103, %37
  br label %105

105:                                              ; preds = %104, %30
  br label %106

106:                                              ; preds = %105, %22
  ret i1 true
}