; Function Attrs: mustprogress uwtable
define noundef zeroext i1 @_ZN4YAML5Utils9WriteCharERNS_15ostream_wrapperEcNS_14StringEscaping5valueE(ptr noundef nonnull align 8 dereferenceable(57) %0, i8 noundef signext %1, i32 noundef %2) local_unnamed_addr #0 {
  %4 = alloca i8, align 1
  %5 = alloca i8, align 1
  %6 = sext i8 %1 to i32
  %7 = and i8 %1, -33
  %8 = add i8 %7, -65
  %or.cond36 = icmp ult i8 %8, 26
  br i1 %or.cond36, label %9, label %10

9:                                                ; preds = %3
  call void @llvm.lifetime.start.p0(i64 1, ptr nonnull %5)
  store i8 %1, ptr %5, align 1, !tbaa !12
  call void @_ZN4YAML15ostream_wrapper5writeEPKcm(ptr noundef nonnull align 8 dereferenceable(57) %0, ptr noundef nonnull %5, i64 noundef 1)
  call void @llvm.lifetime.end.p0(i64 1, ptr nonnull %5)
  br label %22

10:                                               ; preds = %3
  switch i8 %1, label %18 [
    i8 34, label %11
    i8 9, label %12
    i8 10, label %13
    i8 8, label %14
    i8 13, label %15
    i8 12, label %16
    i8 92, label %17
  ]

11:                                               ; preds = %10
  tail call void @_ZN4YAML15ostream_wrapper5writeEPKcm(ptr noundef nonnull align 8 dereferenceable(57) %0, ptr noundef nonnull @.str.12, i64 noundef 4)
  br label %22

12:                                               ; preds = %10
  tail call void @_ZN4YAML15ostream_wrapper5writeEPKcm(ptr noundef nonnull align 8 dereferenceable(57) %0, ptr noundef nonnull @.str.13, i64 noundef 4)
  br label %22

13:                                               ; preds = %10
  tail call void @_ZN4YAML15ostream_wrapper5writeEPKcm(ptr noundef nonnull align 8 dereferenceable(57) %0, ptr noundef nonnull @.str.14, i64 noundef 4)
  br label %22

14:                                               ; preds = %10
  tail call void @_ZN4YAML15ostream_wrapper5writeEPKcm(ptr noundef nonnull align 8 dereferenceable(57) %0, ptr noundef nonnull @.str.15, i64 noundef 4)
  br label %22

15:                                               ; preds = %10
  tail call void @_ZN4YAML15ostream_wrapper5writeEPKcm(ptr noundef nonnull align 8 dereferenceable(57) %0, ptr noundef nonnull @.str.16, i64 noundef 4)
  br label %22

16:                                               ; preds = %10
  tail call void @_ZN4YAML15ostream_wrapper5writeEPKcm(ptr noundef nonnull align 8 dereferenceable(57) %0, ptr noundef nonnull @.str.17, i64 noundef 4)
  br label %22

17:                                               ; preds = %10
  tail call void @_ZN4YAML15ostream_wrapper5writeEPKcm(ptr noundef nonnull align 8 dereferenceable(57) %0, ptr noundef nonnull @.str.18, i64 noundef 4)
  br label %22

18:                                               ; preds = %10
  %19 = add i8 %1, -32
  %or.cond8 = icmp ult i8 %19, 95
  tail call void @_ZN4YAML15ostream_wrapper5writeEPKcm(ptr noundef nonnull align 8 dereferenceable(57) %0, ptr noundef nonnull @.str.2, i64 noundef 1)
  br i1 %or.cond8, label %20, label %21

20:                                               ; preds = %18
  call void @llvm.lifetime.start.p0(i64 1, ptr nonnull %4)
  store i8 %1, ptr %4, align 1, !tbaa !12
  call void @_ZN4YAML15ostream_wrapper5writeEPKcm(ptr noundef nonnull align 8 dereferenceable(57) %0, ptr noundef nonnull %4, i64 noundef 1)
  call void @llvm.lifetime.end.p0(i64 1, ptr nonnull %4)
  call void @_ZN4YAML15ostream_wrapper5writeEPKcm(ptr noundef nonnull align 8 dereferenceable(57) %0, ptr noundef nonnull @.str.2, i64 noundef 1)
  br label %22

21:                                               ; preds = %18
  tail call fastcc void @_ZN4YAML5Utils12_GLOBAL__N_130WriteDoubleQuoteEscapeSequenceERNS_15ostream_wrapperEiNS_14StringEscaping5valueE(ptr noundef nonnull align 8 dereferenceable(57) %0, i32 noundef %6, i32 noundef %2)
  tail call void @_ZN4YAML15ostream_wrapper5writeEPKcm(ptr noundef nonnull align 8 dereferenceable(57) %0, ptr noundef nonnull @.str.2, i64 noundef 1)
  br label %22

22:                                               ; preds = %11, %13, %15, %17, %21, %20, %16, %14, %12, %9
  ret i1 true
}